
insertOsNameHereOS.elf:     file format elf32-avr

Sections:
Idx Name          Size      VMA       LMA       File off  Algn
  0 .data         00000000  00800100  00800100  00000242  2**0
                  CONTENTS, ALLOC, LOAD, DATA
  1 .text         000001ce  00000000  00000000  00000074  2**1
                  CONTENTS, ALLOC, LOAD, READONLY, CODE
  2 .bss          00000002  00800100  00800100  00000242  2**0
                  ALLOC
  3 .comment      00000030  00000000  00000000  00000242  2**0
                  CONTENTS, READONLY
  4 .note.gnu.avr.deviceinfo 00000040  00000000  00000000  00000274  2**2
                  CONTENTS, READONLY
  5 .debug_aranges 00000060  00000000  00000000  000002b8  2**3
                  CONTENTS, READONLY, DEBUGGING
  6 .debug_info   00000bcd  00000000  00000000  00000318  2**0
                  CONTENTS, READONLY, DEBUGGING
  7 .debug_abbrev 00000a0c  00000000  00000000  00000ee5  2**0
                  CONTENTS, READONLY, DEBUGGING
  8 .debug_line   00000391  00000000  00000000  000018f1  2**0
                  CONTENTS, READONLY, DEBUGGING
  9 .debug_frame  00000080  00000000  00000000  00001c84  2**2
                  CONTENTS, READONLY, DEBUGGING
 10 .debug_str    0000052f  00000000  00000000  00001d04  2**0
                  CONTENTS, READONLY, DEBUGGING
 11 .debug_loc    000000bd  00000000  00000000  00002233  2**0
                  CONTENTS, READONLY, DEBUGGING
 12 .debug_ranges 00000030  00000000  00000000  000022f0  2**0
                  CONTENTS, READONLY, DEBUGGING

Disassembly of section .text:

00000000 <__vectors>:
   0:	0c 94 5a 00 	jmp	0xb4	; 0xb4 <__ctors_end>
   4:	0c 94 6c 00 	jmp	0xd8	; 0xd8 <__bad_interrupt>
   8:	0c 94 6c 00 	jmp	0xd8	; 0xd8 <__bad_interrupt>
   c:	0c 94 6c 00 	jmp	0xd8	; 0xd8 <__bad_interrupt>
  10:	0c 94 6c 00 	jmp	0xd8	; 0xd8 <__bad_interrupt>
  14:	0c 94 6c 00 	jmp	0xd8	; 0xd8 <__bad_interrupt>
  18:	0c 94 6c 00 	jmp	0xd8	; 0xd8 <__bad_interrupt>
  1c:	0c 94 6c 00 	jmp	0xd8	; 0xd8 <__bad_interrupt>
  20:	0c 94 6c 00 	jmp	0xd8	; 0xd8 <__bad_interrupt>
  24:	0c 94 6c 00 	jmp	0xd8	; 0xd8 <__bad_interrupt>
  28:	0c 94 6c 00 	jmp	0xd8	; 0xd8 <__bad_interrupt>
  2c:	0c 94 6c 00 	jmp	0xd8	; 0xd8 <__bad_interrupt>
  30:	0c 94 6c 00 	jmp	0xd8	; 0xd8 <__bad_interrupt>
  34:	0c 94 6c 00 	jmp	0xd8	; 0xd8 <__bad_interrupt>
  38:	0c 94 6c 00 	jmp	0xd8	; 0xd8 <__bad_interrupt>
  3c:	0c 94 6c 00 	jmp	0xd8	; 0xd8 <__bad_interrupt>
  40:	0c 94 6c 00 	jmp	0xd8	; 0xd8 <__bad_interrupt>
  44:	0c 94 6c 00 	jmp	0xd8	; 0xd8 <__bad_interrupt>
  48:	0c 94 6c 00 	jmp	0xd8	; 0xd8 <__bad_interrupt>
  4c:	0c 94 6c 00 	jmp	0xd8	; 0xd8 <__bad_interrupt>
  50:	0c 94 6c 00 	jmp	0xd8	; 0xd8 <__bad_interrupt>
  54:	0c 94 6c 00 	jmp	0xd8	; 0xd8 <__bad_interrupt>
  58:	0c 94 6c 00 	jmp	0xd8	; 0xd8 <__bad_interrupt>
  5c:	0c 94 6c 00 	jmp	0xd8	; 0xd8 <__bad_interrupt>
  60:	0c 94 6c 00 	jmp	0xd8	; 0xd8 <__bad_interrupt>
  64:	0c 94 6c 00 	jmp	0xd8	; 0xd8 <__bad_interrupt>
  68:	0c 94 6c 00 	jmp	0xd8	; 0xd8 <__bad_interrupt>
  6c:	0c 94 6c 00 	jmp	0xd8	; 0xd8 <__bad_interrupt>
  70:	0c 94 6c 00 	jmp	0xd8	; 0xd8 <__bad_interrupt>
  74:	0c 94 6c 00 	jmp	0xd8	; 0xd8 <__bad_interrupt>
  78:	0c 94 6c 00 	jmp	0xd8	; 0xd8 <__bad_interrupt>
  7c:	0c 94 6c 00 	jmp	0xd8	; 0xd8 <__bad_interrupt>
  80:	0c 94 6c 00 	jmp	0xd8	; 0xd8 <__bad_interrupt>
  84:	0c 94 6c 00 	jmp	0xd8	; 0xd8 <__bad_interrupt>
  88:	0c 94 6c 00 	jmp	0xd8	; 0xd8 <__bad_interrupt>
  8c:	0c 94 6c 00 	jmp	0xd8	; 0xd8 <__bad_interrupt>
  90:	0c 94 6c 00 	jmp	0xd8	; 0xd8 <__bad_interrupt>
  94:	0c 94 6c 00 	jmp	0xd8	; 0xd8 <__bad_interrupt>
  98:	0c 94 6c 00 	jmp	0xd8	; 0xd8 <__bad_interrupt>
  9c:	0c 94 6c 00 	jmp	0xd8	; 0xd8 <__bad_interrupt>
  a0:	0c 94 6c 00 	jmp	0xd8	; 0xd8 <__bad_interrupt>
  a4:	0c 94 6c 00 	jmp	0xd8	; 0xd8 <__bad_interrupt>
  a8:	0c 94 70 00 	jmp	0xe0	; 0xe0 <__vector_42>
  ac:	0c 94 6c 00 	jmp	0xd8	; 0xd8 <__bad_interrupt>
  b0:	0c 94 6c 00 	jmp	0xd8	; 0xd8 <__bad_interrupt>

000000b4 <__ctors_end>:
  b4:	11 24       	eor	r1, r1
  b6:	1f be       	out	0x3f, r1	; 63
  b8:	cf ef       	ldi	r28, 0xFF	; 255
  ba:	d8 e0       	ldi	r29, 0x08	; 8
  bc:	de bf       	out	0x3e, r29	; 62
  be:	cd bf       	out	0x3d, r28	; 61

000000c0 <__do_clear_bss>:
  c0:	21 e0       	ldi	r18, 0x01	; 1
  c2:	a0 e0       	ldi	r26, 0x00	; 0
  c4:	b1 e0       	ldi	r27, 0x01	; 1
  c6:	01 c0       	rjmp	.+2      	; 0xca <.do_clear_bss_start>

000000c8 <.do_clear_bss_loop>:
  c8:	1d 92       	st	X+, r1

000000ca <.do_clear_bss_start>:
  ca:	a2 30       	cpi	r26, 0x02	; 2
  cc:	b2 07       	cpc	r27, r18
  ce:	e1 f7       	brne	.-8      	; 0xc8 <.do_clear_bss_loop>
  d0:	0e 94 d4 00 	call	0x1a8	; 0x1a8 <main>
  d4:	0c 94 e5 00 	jmp	0x1ca	; 0x1ca <_exit>

000000d8 <__bad_interrupt>:
  d8:	0c 94 00 00 	jmp	0	; 0x0 <__vectors>

000000dc <os>:


 .global os
os:

	sbi _SFR_IO_ADDR(PINB), 5
  dc:	1d 9a       	sbi	0x03, 5	; 3
	ret
  de:	08 95       	ret

000000e0 <__vector_42>:

.global TIMER4_COMPA_vect

TIMER4_COMPA_vect:
  ; save the status of the processor
  PUSH R0;
  e0:	0f 92       	push	r0
         ; R1 is zero and doenst need to be saved
  IN R1, _SFR_IO_ADDR(SREG); save the status register
  e2:	1f b6       	in	r1, 0x3f	; 63
  PUSH R1
  e4:	1f 92       	push	r1
  PUSH ZL; save the Z register
  e6:	ef 93       	push	r30
  PUSH ZH
  e8:	ff 93       	push	r31

  ; stack grows downward. to get something from from 4 pushes ago add 4 to SP
  IN ZL, _SFR_IO_ADDR(SPL); copy the stack pointer to the Z register
  ea:	ed b7       	in	r30, 0x3d	; 61
  IN ZH, _SFR_IO_ADDR(SPH);  
  ec:	fe b7       	in	r31, 0x3e	; 62
  ADIW Z, 4; points to PC - 4, pushed PC from before call to interrupt
  ee:	34 96       	adiw	r30, 0x04	; 4
  LD R0, Z+; get low byte and increment
  f0:	01 90       	ld	r0, Z+
  LD R1, Z; get high byte
  f2:	10 80       	ld	r1, Z

  ; Restore registers
  POP ZH
  f4:	ff 91       	pop	r31
  POP ZL
  f6:	ef 91       	pop	r30
  CLR R1; clear R1 to zero
  f8:	11 24       	eor	r1, r1
  POP R1; get SREG from stack 
  fa:	1f 90       	pop	r1
  OUT _SFR_IO_ADDR(SREG), R1
  fc:	1f be       	out	0x3f, r1	; 63
  CLR R1
  fe:	11 24       	eor	r1, r1
  POP R0
 100:	0f 90       	pop	r0
  reti
 102:	18 95       	reti

00000104 <blinkyTaskFunction>:
	numberOfTasks++;// increment total number of tasks 
}


void blinkyTaskFunction(){
	PINB |= 1 << 5; 
 104:	1d 9a       	sbi	0x03, 5	; 3
 106:	08 95       	ret

00000108 <blinkyTaskIsReady>:
}

uint8_t blinkyTaskIsReady(){
	return 1; 
	
}
 108:	81 e0       	ldi	r24, 0x01	; 1
 10a:	08 95       	ret

0000010c <tickTimerSetup>:
		i++;
    }
}

void tickTimerSetup(){
	TCCR4A = 0;
 10c:	10 92 a0 00 	sts	0x00A0, r1	; 0x8000a0 <__TEXT_REGION_LENGTH__+0x7e00a0>
			// ctc mode		// clk / 8
	TCCR4B = (1 << WGM42) | (0b010 << CS40) ;
 110:	8a e0       	ldi	r24, 0x0A	; 10
 112:	80 93 a1 00 	sts	0x00A1, r24	; 0x8000a1 <__TEXT_REGION_LENGTH__+0x7e00a1>
	OCR4A = TIMER_TICK_TIME_LOAD_VALUE; 
 116:	80 ed       	ldi	r24, 0xD0	; 208
 118:	97 e0       	ldi	r25, 0x07	; 7
 11a:	90 93 a9 00 	sts	0x00A9, r25	; 0x8000a9 <__TEXT_REGION_LENGTH__+0x7e00a9>
 11e:	80 93 a8 00 	sts	0x00A8, r24	; 0x8000a8 <__TEXT_REGION_LENGTH__+0x7e00a8>
	TIMSK4 = 1 << OCIE4A; 
 122:	82 e0       	ldi	r24, 0x02	; 2
 124:	80 93 72 00 	sts	0x0072, r24	; 0x800072 <__TEXT_REGION_LENGTH__+0x7e0072>
 128:	08 95       	ret

0000012a <createTask>:
}

void createTask(void (*taskF)(void), uint8_t (*taskReady)(void)){
 12a:	0f 93       	push	r16
 12c:	1f 93       	push	r17
 12e:	cf 93       	push	r28
 130:	df 93       	push	r29
 132:	cd b7       	in	r28, 0x3d	; 61
 134:	de b7       	in	r29, 0x3e	; 62
 136:	2d 97       	sbiw	r28, 0x0d	; 13
 138:	0f b6       	in	r0, 0x3f	; 63
 13a:	f8 94       	cli
 13c:	de bf       	out	0x3e, r29	; 62
 13e:	0f be       	out	0x3f, r0	; 63
 140:	cd bf       	out	0x3d, r28	; 61
 142:	ac 01       	movw	r20, r24
	Task t = taskArray[numberOfTasks]; // get memory for task
 144:	90 91 01 01 	lds	r25, 0x0101	; 0x800101 <numberOfTasks>
 148:	09 2f       	mov	r16, r25
 14a:	10 e0       	ldi	r17, 0x00	; 0
 14c:	8d e0       	ldi	r24, 0x0D	; 13
 14e:	98 9f       	mul	r25, r24
 150:	90 01       	movw	r18, r0
 152:	11 24       	eor	r1, r1
 154:	20 50       	subi	r18, 0x00	; 0
 156:	3f 4f       	sbci	r19, 0xFF	; 255
 158:	8d e0       	ldi	r24, 0x0D	; 13
 15a:	f9 01       	movw	r30, r18
 15c:	de 01       	movw	r26, r28
 15e:	11 96       	adiw	r26, 0x01	; 1
 160:	01 90       	ld	r0, Z+
 162:	0d 92       	st	X+, r0
 164:	8a 95       	dec	r24
 166:	e1 f7       	brne	.-8      	; 0x160 <createTask+0x36>
	t.taskFunction = taskF;
	t.isTaskReady = taskReady;
	t.state = WAITING; 
	t.programCounter = taskF;
	
	taskArray[numberOfTasks] = t;
 168:	1a 83       	std	Y+2, r17	; 0x02
 16a:	09 83       	std	Y+1, r16	; 0x01
 16c:	5c 83       	std	Y+4, r21	; 0x04
 16e:	4b 83       	std	Y+3, r20	; 0x03
 170:	7e 83       	std	Y+6, r23	; 0x06
 172:	6d 83       	std	Y+5, r22	; 0x05
 174:	82 e0       	ldi	r24, 0x02	; 2
 176:	8f 83       	std	Y+7, r24	; 0x07
 178:	5b 87       	std	Y+11, r21	; 0x0b
 17a:	4a 87       	std	Y+10, r20	; 0x0a
 17c:	8d e0       	ldi	r24, 0x0D	; 13
 17e:	fe 01       	movw	r30, r28
 180:	31 96       	adiw	r30, 0x01	; 1
 182:	d9 01       	movw	r26, r18
 184:	01 90       	ld	r0, Z+
 186:	0d 92       	st	X+, r0
 188:	8a 95       	dec	r24
 18a:	e1 f7       	brne	.-8      	; 0x184 <createTask+0x5a>
	
	numberOfTasks++;// increment total number of tasks 
 18c:	9f 5f       	subi	r25, 0xFF	; 255
 18e:	90 93 01 01 	sts	0x0101, r25	; 0x800101 <numberOfTasks>
}
 192:	2d 96       	adiw	r28, 0x0d	; 13
 194:	0f b6       	in	r0, 0x3f	; 63
 196:	f8 94       	cli
 198:	de bf       	out	0x3e, r29	; 62
 19a:	0f be       	out	0x3f, r0	; 63
 19c:	cd bf       	out	0x3d, r28	; 61
 19e:	df 91       	pop	r29
 1a0:	cf 91       	pop	r28
 1a2:	1f 91       	pop	r17
 1a4:	0f 91       	pop	r16
 1a6:	08 95       	ret

000001a8 <main>:

volatile uint8_t i = 0; 

int main(void)
{
	DDRE |= 1 << 0;		// heartbeat pin
 1a8:	68 9a       	sbi	0x0d, 0	; 13
	DDRB |= 1 << 5;
 1aa:	25 9a       	sbi	0x04, 5	; 4
	
	
	
	tickTimerSetup();
 1ac:	0e 94 86 00 	call	0x10c	; 0x10c <tickTimerSetup>
	sei();
 1b0:	78 94       	sei
	
	createTask(blinkyTaskFunction, blinkyTaskIsReady); 
 1b2:	64 e8       	ldi	r22, 0x84	; 132
 1b4:	70 e0       	ldi	r23, 0x00	; 0
 1b6:	82 e8       	ldi	r24, 0x82	; 130
 1b8:	90 e0       	ldi	r25, 0x00	; 0
 1ba:	0e 94 95 00 	call	0x12a	; 0x12a <createTask>
	
    /* Replace with your application code */
    while (1) 
    {
		i++;
 1be:	80 91 00 01 	lds	r24, 0x0100	; 0x800100 <_edata>
 1c2:	8f 5f       	subi	r24, 0xFF	; 255
 1c4:	80 93 00 01 	sts	0x0100, r24	; 0x800100 <_edata>
 1c8:	fa cf       	rjmp	.-12     	; 0x1be <main+0x16>

000001ca <_exit>:
 1ca:	f8 94       	cli

000001cc <__stop_program>:
 1cc:	ff cf       	rjmp	.-2      	; 0x1cc <__stop_program>
